target datalayout = "e-m:e-p270:32:32-p271:32:32-p272:64:64-i64:64-i128:128-f80:128-n8:16:32:64-S128"
target triple = "x86_64-pc-linux-gnu"

%struct.HTable = type { i32, ptr }
%struct.Module_ = type { ptr, ptr, ptr, i16, i32, ptr, %struct.HTable, ptr, ptr, ptr, ptr, ptr, ptr, ptr, ptr, ptr }
%union.SourceSpan = type { i64 }
%struct.BuildTarget = type { i32, ptr, ptr, ptr, ptr, ptr, ptr, ptr, ptr, ptr, ptr, ptr, ptr, ptr, ptr, ptr, ptr, ptr, ptr, i8, i8, i8, i8, i8, i8, i8, i8, i8, i8, i8, i8, i8, i8, i8, i8, i8, i8, i8, i8, i32, i32, i32, i32, i32, i32, i32, i32, i32, i32, i32, i32, i32, i32, i32, i32, i32, i32, ptr, ptr, ptr, ptr, ptr, ptr, ptr, ptr, ptr, ptr, %struct.anon.90, %struct.anon.91, %struct.anon.92, %struct.anon.93 }
%struct.anon.90 = type { i16, i32, i32, i32 }
%struct.anon.91 = type { ptr, ptr, ptr, ptr }
%struct.anon.92 = type { ptr, ptr, i32, i8 }
%struct.anon.93 = type { ptr, ptr }
%struct.VHeader_ = type { i32, i32, [0 x i8] }
%struct.CompilationUnit_ = type { ptr, ptr, ptr, ptr, ptr, ptr, ptr, ptr, ptr, ptr, i32, ptr, i8, i8, i8, i8, ptr, ptr, ptr, ptr, ptr, ptr, ptr, ptr, ptr, ptr, ptr, ptr, %struct.HTable, i32, ptr, ptr, %struct.anon.85 }
%struct.anon.85 = type { ptr, ptr }
%struct.Decl_ = type { ptr, ptr, %union.SourceSpan, i64, %union.anon, i32, %union.anon.0, i64, ptr, ptr, ptr, %union.anon.1 }
%union.anon = type { ptr }
%union.anon.0 = type { i16 }
%union.anon.1 = type { %struct.FuncDecl }
%struct.FuncDecl = type { i32, [4 x i8], %struct.Signature_, i32, i32, %union.anon.8 }
%struct.Signature_ = type <{ %struct.CalleeAttributes, i16, i8, i32, i32, [4 x i8], ptr }>
%struct.CalleeAttributes = type { i8 }
%union.anon.8 = type { %struct.anon.9 }
%struct.anon.9 = type { i16, %union.anon.10 }
%union.anon.10 = type { ptr }
%struct.SemaContext_ = type { ptr, ptr, ptr, %struct.CallEnv, ptr, %union.SourceSpan, i32, i32, ptr, i32, ptr, i32, i32, ptr, ptr, i32, %struct.anon.86, ptr, ptr, ptr, %struct.DynamicScope_, ptr }
%struct.CallEnv = type { i16, ptr, %union.anon.60 }
%union.anon.60 = type { ptr }
%struct.anon.86 = type { i32, ptr, ptr, ptr, ptr, ptr, ptr, ptr, ptr, ptr, i8, ptr }
%struct.DynamicScope_ = type { i32, i8, i32, i32, i32, i32, i32, ptr, i32 }

@active_target = external global %struct.BuildTarget, align 8
@.str.27 = private unnamed_addr constant [45 x i8] c"'extern' functions should never have a body.\00", align 1

; Function Attrs: nounwind uwtable
define internal zeroext i1 @analyse_func_body(ptr noundef %0, ptr noundef %1) #0 {
  %3 = alloca ptr, align 8
  %4 = alloca ptr, align 8
  %5 = alloca i1, align 1
  %6 = alloca ptr, align 8
  %7 = alloca ptr, align 8
  store ptr %0, ptr %6, align 8
  store ptr %1, ptr %7, align 8
  %8 = load ptr, ptr %7, align 8
  %9 = getelementptr inbounds %struct.Decl_, ptr %8, i32 0, i32 11
  %10 = getelementptr inbounds %struct.FuncDecl, ptr %9, i32 0, i32 3
  %11 = load i32, ptr %10, align 8
  %12 = icmp ne i32 %11, 0
  br i1 %12, label %14, label %13

13:                                               ; preds = %2
  store i1 true, ptr %5, align 1
  br label %76

14:                                               ; preds = %2
  %15 = load ptr, ptr %7, align 8
  %16 = getelementptr inbounds %struct.Decl_, ptr %15, i32 0, i32 3
  %17 = load i64, ptr %16, align 8
  %18 = lshr i64 %17, 14
  %19 = and i64 %18, 1
  %20 = trunc i64 %19 to i1
  br i1 %20, label %21, label %36

21:                                               ; preds = %14
  %22 = load ptr, ptr %7, align 8
  %23 = getelementptr inbounds %struct.Decl_, ptr %22, i32 0, i32 2
  %24 = getelementptr inbounds %union.SourceSpan, ptr %23, i32 0, i32 0
  %25 = load i64, ptr %24, align 8
  call void (i64, ptr, ...) @sema_error_at(i64 %25, ptr noundef @.str.27)
  %26 = load ptr, ptr %7, align 8
  store ptr %26, ptr %3, align 8
  %27 = load ptr, ptr %3, align 8
  %28 = getelementptr inbounds %struct.Decl_, ptr %27, i32 0, i32 3
  %29 = load i64, ptr %28, align 8
  %30 = and i64 %29, -128
  store i64 %30, ptr %28, align 8
  %31 = load ptr, ptr %3, align 8
  %32 = getelementptr inbounds %struct.Decl_, ptr %31, i32 0, i32 3
  %33 = load i64, ptr %32, align 8
  %34 = and i64 %33, -897
  %35 = or i64 %34, 256
  store i64 %35, ptr %32, align 8
  store i1 false, ptr %5, align 1
  br label %76

36:                                               ; preds = %14
  %37 = load ptr, ptr %7, align 8
  %38 = getelementptr inbounds %struct.Decl_, ptr %37, i32 0, i32 11
  %39 = getelementptr inbounds %struct.FuncDecl, ptr %38, i32 0, i32 5
  %40 = load i16, ptr %39, align 8
  %41 = lshr i16 %40, 5
  %42 = and i16 %41, 1
  %43 = trunc i16 %42 to i1
  br i1 %43, label %44, label %48

44:                                               ; preds = %36
  %45 = load i8, ptr getelementptr inbounds (%struct.BuildTarget, ptr @active_target, i32 0, i32 33), align 2
  %46 = trunc i8 %45 to i1
  br i1 %46, label %48, label %47

47:                                               ; preds = %44
  store i1 true, ptr %5, align 1
  br label %76

48:                                               ; preds = %44, %36
  %49 = load ptr, ptr %7, align 8
  %50 = getelementptr inbounds %struct.Decl_, ptr %49, i32 0, i32 11
  %51 = getelementptr inbounds %struct.FuncDecl, ptr %50, i32 0, i32 5
  %52 = load i16, ptr %51, align 8
  %53 = lshr i16 %52, 4
  %54 = and i16 %53, 1
  %55 = trunc i16 %54 to i1
  br i1 %55, label %56, label %60

56:                                               ; preds = %48
  %57 = load i8, ptr getelementptr inbounds (%struct.BuildTarget, ptr @active_target, i32 0, i32 32), align 1
  %58 = trunc i8 %57 to i1
  br i1 %58, label %60, label %59

59:                                               ; preds = %56
  store i1 true, ptr %5, align 1
  br label %76

60:                                               ; preds = %56, %48
  %61 = load ptr, ptr %6, align 8
  %62 = load ptr, ptr %7, align 8
  %63 = call zeroext i1 @sema_analyse_function_body(ptr noundef %61, ptr noundef %62)
  br i1 %63, label %75, label %64

64:                                               ; preds = %60
  %65 = load ptr, ptr %7, align 8
  store ptr %65, ptr %4, align 8
  %66 = load ptr, ptr %4, align 8
  %67 = getelementptr inbounds %struct.Decl_, ptr %66, i32 0, i32 3
  %68 = load i64, ptr %67, align 8
  %69 = and i64 %68, -128
  store i64 %69, ptr %67, align 8
  %70 = load ptr, ptr %4, align 8
  %71 = getelementptr inbounds %struct.Decl_, ptr %70, i32 0, i32 3
  %72 = load i64, ptr %71, align 8
  %73 = and i64 %72, -897
  %74 = or i64 %73, 256
  store i64 %74, ptr %71, align 8
  store i1 false, ptr %5, align 1
  br label %76

75:                                               ; preds = %60
  store i1 true, ptr %5, align 1
  br label %76

76:                                               ; preds = %75, %64, %59, %47, %21, %13
  %77 = load i1, ptr %5, align 1
  ret i1 %77
}

; Function Attrs: nounwind uwtable
define dso_local void @sema_analysis_pass_functions(ptr noundef %0) #0 {
  %2 = alloca i32, align 4
  %3 = alloca ptr, align 8
  %4 = alloca ptr, align 8
  %5 = alloca i32, align 4
  %6 = alloca ptr, align 8
  %7 = alloca ptr, align 8
  %8 = alloca i32, align 4
  %9 = alloca ptr, align 8
  %10 = alloca ptr, align 8
  %11 = alloca ptr, align 8
  %12 = alloca i32, align 4
  %13 = alloca i32, align 4
  %14 = alloca ptr, align 8
  %15 = alloca %struct.SemaContext_, align 8
  %16 = alloca i32, align 4
  %17 = alloca i32, align 4
  %18 = alloca i32, align 4
  %19 = alloca i32, align 4
  store ptr %0, ptr %11, align 8
  br label %20

20:                                               ; preds = %1
  br label %21

21:                                               ; preds = %20
  store i32 0, ptr %12, align 4
  %22 = load ptr, ptr %11, align 8
  %23 = getelementptr inbounds %struct.Module_, ptr %22, i32 0, i32 7
  %24 = load ptr, ptr %23, align 8
  store ptr %24, ptr %3, align 8
  %25 = load ptr, ptr %3, align 8
  %26 = icmp ne ptr %25, null
  br i1 %26, label %28, label %27

27:                                               ; preds = %21
  store i32 0, ptr %2, align 4
  br label %33

28:                                               ; preds = %21
  %29 = load ptr, ptr %3, align 8
  store ptr %29, ptr %4, align 8
  %30 = load ptr, ptr %4, align 8
  %31 = getelementptr inbounds %struct.VHeader_, ptr %30, i64 -1
  %32 = load i32, ptr %31, align 4
  store i32 %32, ptr %2, align 4
  br label %33

33:                                               ; preds = %28, %27
  %34 = load i32, ptr %2, align 4
  store i32 %34, ptr %13, align 4
  br label %35

35:                                               ; preds = %127, %33
  %36 = load i32, ptr %12, align 4
  %37 = load i32, ptr %13, align 4
  %38 = icmp ult i32 %36, %37
  br i1 %38, label %39, label %130

39:                                               ; preds = %35
  %40 = load ptr, ptr %11, align 8
  %41 = getelementptr inbounds %struct.Module_, ptr %40, i32 0, i32 7
  %42 = load ptr, ptr %41, align 8
  %43 = load i32, ptr %12, align 4
  %44 = zext i32 %43 to i64
  %45 = getelementptr inbounds ptr, ptr %42, i64 %44
  %46 = load ptr, ptr %45, align 8
  store ptr %46, ptr %14, align 8
  %47 = load ptr, ptr %14, align 8
  call void @sema_context_init(ptr noundef %15, ptr noundef %47)
  store i32 0, ptr %16, align 4
  %48 = load ptr, ptr %14, align 8
  %49 = getelementptr inbounds %struct.CompilationUnit_, ptr %48, i32 0, i32 23
  %50 = load ptr, ptr %49, align 8
  store ptr %50, ptr %6, align 8
  %51 = load ptr, ptr %6, align 8
  %52 = icmp ne ptr %51, null
  br i1 %52, label %54, label %53

53:                                               ; preds = %39
  store i32 0, ptr %5, align 4
  br label %59

54:                                               ; preds = %39
  %55 = load ptr, ptr %6, align 8
  store ptr %55, ptr %7, align 8
  %56 = load ptr, ptr %7, align 8
  %57 = getelementptr inbounds %struct.VHeader_, ptr %56, i64 -1
  %58 = load i32, ptr %57, align 4
  store i32 %58, ptr %5, align 4
  br label %59

59:                                               ; preds = %54, %53
  %60 = load i32, ptr %5, align 4
  store i32 %60, ptr %17, align 4
  br label %61

61:                                               ; preds = %74, %59
  %62 = load i32, ptr %16, align 4
  %63 = load i32, ptr %17, align 4
  %64 = icmp ult i32 %62, %63
  br i1 %64, label %65, label %77

65:                                               ; preds = %61
  %66 = load ptr, ptr %14, align 8
  %67 = getelementptr inbounds %struct.CompilationUnit_, ptr %66, i32 0, i32 23
  %68 = load ptr, ptr %67, align 8
  %69 = load i32, ptr %16, align 4
  %70 = zext i32 %69 to i64
  %71 = getelementptr inbounds ptr, ptr %68, i64 %70
  %72 = load ptr, ptr %71, align 8
  %73 = call zeroext i1 @analyse_func_body(ptr noundef %15, ptr noundef %72)
  br label %74

74:                                               ; preds = %65
  %75 = load i32, ptr %16, align 4
  %76 = add i32 %75, 1
  store i32 %76, ptr %16, align 4
  br label %61, !llvm.loop !48

77:                                               ; preds = %61
  store i32 0, ptr %18, align 4
  %78 = load ptr, ptr %14, align 8
  %79 = getelementptr inbounds %struct.CompilationUnit_, ptr %78, i32 0, i32 4
  %80 = load ptr, ptr %79, align 8
  store ptr %80, ptr %9, align 8
  %81 = load ptr, ptr %9, align 8
  %82 = icmp ne ptr %81, null
  br i1 %82, label %84, label %83

83:                                               ; preds = %77
  store i32 0, ptr %8, align 4
  br label %89

84:                                               ; preds = %77
  %85 = load ptr, ptr %9, align 8
  store ptr %85, ptr %10, align 8
  %86 = load ptr, ptr %10, align 8
  %87 = getelementptr inbounds %struct.VHeader_, ptr %86, i64 -1
  %88 = load i32, ptr %87, align 4
  store i32 %88, ptr %8, align 4
  br label %89

89:                                               ; preds = %84, %83
  %90 = load i32, ptr %8, align 4
  store i32 %90, ptr %19, align 4
  br label %91

91:                                               ; preds = %104, %89
  %92 = load i32, ptr %18, align 4
  %93 = load i32, ptr %19, align 4
  %94 = icmp ult i32 %92, %93
  br i1 %94, label %95, label %107

95:                                               ; preds = %91
  %96 = load ptr, ptr %14, align 8
  %97 = getelementptr inbounds %struct.CompilationUnit_, ptr %96, i32 0, i32 4
  %98 = load ptr, ptr %97, align 8
  %99 = load i32, ptr %18, align 4
  %100 = zext i32 %99 to i64
  %101 = getelementptr inbounds ptr, ptr %98, i64 %100
  %102 = load ptr, ptr %101, align 8
  %103 = call zeroext i1 @analyse_func_body(ptr noundef %15, ptr noundef %102)
  br label %104

104:                                              ; preds = %95
  %105 = load i32, ptr %18, align 4
  %106 = add i32 %105, 1
  store i32 %106, ptr %18, align 4
  br label %91, !llvm.loop !49

107:                                              ; preds = %91
  %108 = load ptr, ptr %14, align 8
  %109 = getelementptr inbounds %struct.CompilationUnit_, ptr %108, i32 0, i32 27
  %110 = load ptr, ptr %109, align 8
  %111 = icmp ne ptr %110, null
  br i1 %111, label %112, label %126

112:                                              ; preds = %107
  %113 = load ptr, ptr %14, align 8
  %114 = getelementptr inbounds %struct.CompilationUnit_, ptr %113, i32 0, i32 27
  %115 = load ptr, ptr %114, align 8
  %116 = getelementptr inbounds %struct.Decl_, ptr %115, i32 0, i32 3
  %117 = load i64, ptr %116, align 8
  %118 = lshr i64 %117, 27
  %119 = and i64 %118, 1
  %120 = trunc i64 %119 to i1
  br i1 %120, label %121, label %126

121:                                              ; preds = %112
  %122 = load ptr, ptr %14, align 8
  %123 = getelementptr inbounds %struct.CompilationUnit_, ptr %122, i32 0, i32 27
  %124 = load ptr, ptr %123, align 8
  %125 = call zeroext i1 @analyse_func_body(ptr noundef %15, ptr noundef %124)
  br label %126

126:                                              ; preds = %121, %112, %107
  call void @sema_context_destroy(ptr noundef %15)
  br label %127

127:                                              ; preds = %126
  %128 = load i32, ptr %12, align 4
  %129 = add i32 %128, 1
  store i32 %129, ptr %12, align 4
  br label %35, !llvm.loop !50

130:                                              ; preds = %35
  br label %131

131:                                              ; preds = %130
  br label %132

132:                                              ; preds = %131
  ret void
}