; Function Attrs: nounwind uwtable
define dso_local void @sema_analysis_pass_functions(ptr nocapture noundef readonly %0) local_unnamed_addr #1 {
  %2 = alloca %struct.SemaContext_, align 8
  %3 = getelementptr inbounds i8, ptr %0, i64 56
  %4 = load ptr, ptr %3, align 8
  %.not = icmp eq ptr %4, null
  br i1 %.not, label %._crit_edge68, label %5

5:                                                ; preds = %1
  %6 = getelementptr inbounds i8, ptr %4, i64 -8
  %7 = load i32, ptr %6, align 4
  %.not69 = icmp eq i32 %7, 0
  br i1 %.not69, label %._crit_edge68, label %.lr.ph67.preheader

.lr.ph67.preheader:                               ; preds = %5
  %wide.trip.count81 = zext i32 %7 to i64
  br label %.lr.ph67

.lr.ph67:                                         ; preds = %.lr.ph67.preheader, %analyse_func_body.exit59
  %indvars.iv78 = phi i64 [ 0, %.lr.ph67.preheader ], [ %indvars.iv.next79, %analyse_func_body.exit59 ]
  %8 = load ptr, ptr %3, align 8
  %9 = getelementptr inbounds ptr, ptr %8, i64 %indvars.iv78
  %10 = load ptr, ptr %9, align 8
  call void @sema_context_init(ptr noundef nonnull %2, ptr noundef %10) #11
  %11 = getelementptr inbounds i8, ptr %10, i64 160
  %12 = load ptr, ptr %11, align 8
  %.not42 = icmp eq ptr %12, null
  br i1 %.not42, label %._crit_edge, label %13

13:                                               ; preds = %.lr.ph67
  %14 = getelementptr inbounds i8, ptr %12, i64 -8
  %15 = load i32, ptr %14, align 4
  %.not70 = icmp eq i32 %15, 0
  br i1 %.not70, label %._crit_edge, label %.lr.ph.preheader

.lr.ph.preheader:                                 ; preds = %13
  %wide.trip.count = zext i32 %15 to i64
  br label %.lr.ph

.lr.ph:                                           ; preds = %.lr.ph.preheader, %analyse_func_body.exit
  %indvars.iv = phi i64 [ 0, %.lr.ph.preheader ], [ %indvars.iv.next, %analyse_func_body.exit ]
  %16 = load ptr, ptr %11, align 8
  %17 = getelementptr inbounds ptr, ptr %16, i64 %indvars.iv
  %18 = load ptr, ptr %17, align 8
  %19 = getelementptr inbounds i8, ptr %18, i64 112
  %20 = load i32, ptr %19, align 8
  %.not.i = icmp eq i32 %20, 0
  br i1 %.not.i, label %analyse_func_body.exit, label %21

21:                                               ; preds = %.lr.ph
  %22 = getelementptr inbounds i8, ptr %18, i64 24
  %23 = load i64, ptr %22, align 8
  %24 = and i64 %23, 16384
  %.not14.i = icmp eq i64 %24, 0
  br i1 %.not14.i, label %28, label %25

25:                                               ; preds = %21
  %26 = getelementptr inbounds i8, ptr %18, i64 16
  %27 = load i64, ptr %26, align 8
  call void (i64, ptr, ...) @sema_error_at(i64 %27, ptr noundef nonnull @.str.27) #11
  br label %.sink.split.i

28:                                               ; preds = %21
  %29 = getelementptr inbounds i8, ptr %18, i64 120
  %30 = load i16, ptr %29, align 8
  %31 = and i16 %30, 32
  %.not15.i = icmp eq i16 %31, 0
  br i1 %.not15.i, label %35, label %32

32:                                               ; preds = %28
  %33 = load i8, ptr getelementptr inbounds (%struct.BuildTarget, ptr @active_target, i64 0, i32 33), align 2
  %34 = trunc i8 %33 to i1
  br i1 %34, label %35, label %analyse_func_body.exit

35:                                               ; preds = %32, %28
  %36 = and i16 %30, 16
  %.not16.i = icmp eq i16 %36, 0
  br i1 %.not16.i, label %40, label %37

37:                                               ; preds = %35
  %38 = load i8, ptr getelementptr inbounds (%struct.BuildTarget, ptr @active_target, i64 0, i32 32), align 1
  %39 = trunc i8 %38 to i1
  br i1 %39, label %40, label %analyse_func_body.exit

40:                                               ; preds = %37, %35
  %41 = call zeroext i1 @sema_analyse_function_body(ptr noundef nonnull %2, ptr noundef nonnull %18) #11
  br i1 %41, label %analyse_func_body.exit, label %.sink.split.i

.sink.split.i:                                    ; preds = %40, %25
  %42 = load i64, ptr %22, align 8
  %43 = and i64 %42, -1024
  %44 = or disjoint i64 %43, 256
  store i64 %44, ptr %22, align 8
  br label %analyse_func_body.exit

analyse_func_body.exit:                           ; preds = %.lr.ph, %32, %37, %40, %.sink.split.i
  %indvars.iv.next = add nuw nsw i64 %indvars.iv, 1
  %exitcond.not = icmp eq i64 %indvars.iv.next, %wide.trip.count
  br i1 %exitcond.not, label %._crit_edge, label %.lr.ph, !llvm.loop !49

._crit_edge:                                      ; preds = %analyse_func_body.exit, %.lr.ph67, %13
  %45 = getelementptr inbounds i8, ptr %10, i64 32
  %46 = load ptr, ptr %45, align 8
  %.not43 = icmp eq ptr %46, null
  br i1 %.not43, label %._crit_edge64, label %47

47:                                               ; preds = %._crit_edge
  %48 = getelementptr inbounds i8, ptr %46, i64 -8
  %49 = load i32, ptr %48, align 4
  %.not71 = icmp eq i32 %49, 0
  br i1 %.not71, label %._crit_edge64, label %.lr.ph63.preheader

.lr.ph63.preheader:                               ; preds = %47
  %wide.trip.count76 = zext i32 %49 to i64
  br label %.lr.ph63

.lr.ph63:                                         ; preds = %.lr.ph63.preheader, %analyse_func_body.exit52
  %indvars.iv73 = phi i64 [ 0, %.lr.ph63.preheader ], [ %indvars.iv.next74, %analyse_func_body.exit52 ]
  %50 = load ptr, ptr %45, align 8
  %51 = getelementptr inbounds ptr, ptr %50, i64 %indvars.iv73
  %52 = load ptr, ptr %51, align 8
  %53 = getelementptr inbounds i8, ptr %52, i64 112
  %54 = load i32, ptr %53, align 8
  %.not.i46 = icmp eq i32 %54, 0
  br i1 %.not.i46, label %analyse_func_body.exit52, label %55

55:                                               ; preds = %.lr.ph63
  %56 = getelementptr inbounds i8, ptr %52, i64 24
  %57 = load i64, ptr %56, align 8
  %58 = and i64 %57, 16384
  %.not14.i47 = icmp eq i64 %58, 0
  br i1 %.not14.i47, label %62, label %59

59:                                               ; preds = %55
  %60 = getelementptr inbounds i8, ptr %52, i64 16
  %61 = load i64, ptr %60, align 8
  call void (i64, ptr, ...) @sema_error_at(i64 %61, ptr noundef nonnull @.str.27) #11
  br label %.sink.split.i48

62:                                               ; preds = %55
  %63 = getelementptr inbounds i8, ptr %52, i64 120
  %64 = load i16, ptr %63, align 8
  %65 = and i16 %64, 32
  %.not15.i50 = icmp eq i16 %65, 0
  br i1 %.not15.i50, label %69, label %66

66:                                               ; preds = %62
  %67 = load i8, ptr getelementptr inbounds (%struct.BuildTarget, ptr @active_target, i64 0, i32 33), align 2
  %68 = trunc i8 %67 to i1
  br i1 %68, label %69, label %analyse_func_body.exit52

69:                                               ; preds = %66, %62
  %70 = and i16 %64, 16
  %.not16.i51 = icmp eq i16 %70, 0
  br i1 %.not16.i51, label %74, label %71

71:                                               ; preds = %69
  %72 = load i8, ptr getelementptr inbounds (%struct.BuildTarget, ptr @active_target, i64 0, i32 32), align 1
  %73 = trunc i8 %72 to i1
  br i1 %73, label %74, label %analyse_func_body.exit52

74:                                               ; preds = %71, %69
  %75 = call zeroext i1 @sema_analyse_function_body(ptr noundef nonnull %2, ptr noundef nonnull %52) #11
  br i1 %75, label %analyse_func_body.exit52, label %.sink.split.i48

.sink.split.i48:                                  ; preds = %74, %59
  %76 = load i64, ptr %56, align 8
  %77 = and i64 %76, -1024
  %78 = or disjoint i64 %77, 256
  store i64 %78, ptr %56, align 8
  br label %analyse_func_body.exit52

analyse_func_body.exit52:                         ; preds = %.lr.ph63, %66, %71, %74, %.sink.split.i48
  %indvars.iv.next74 = add nuw nsw i64 %indvars.iv73, 1
  %exitcond77.not = icmp eq i64 %indvars.iv.next74, %wide.trip.count76
  br i1 %exitcond77.not, label %._crit_edge64, label %.lr.ph63, !llvm.loop !50

._crit_edge64:                                    ; preds = %analyse_func_body.exit52, %._crit_edge, %47
  %79 = getelementptr inbounds i8, ptr %10, i64 192
  %80 = load ptr, ptr %79, align 8
  %.not44 = icmp eq ptr %80, null
  br i1 %.not44, label %analyse_func_body.exit59, label %81

81:                                               ; preds = %._crit_edge64
  %82 = getelementptr inbounds i8, ptr %80, i64 24
  %83 = load i64, ptr %82, align 8
  %84 = and i64 %83, 134217728
  %.not45 = icmp eq i64 %84, 0
  br i1 %.not45, label %analyse_func_body.exit59, label %85

85:                                               ; preds = %81
  %86 = getelementptr inbounds i8, ptr %80, i64 112
  %87 = load i32, ptr %86, align 8
  %.not.i53 = icmp eq i32 %87, 0
  br i1 %.not.i53, label %analyse_func_body.exit59, label %88

88:                                               ; preds = %85
  %89 = and i64 %83, 16384
  %.not14.i54 = icmp eq i64 %89, 0
  br i1 %.not14.i54, label %93, label %90

90:                                               ; preds = %88
  %91 = getelementptr inbounds i8, ptr %80, i64 16
  %92 = load i64, ptr %91, align 8
  call void (i64, ptr, ...) @sema_error_at(i64 %92, ptr noundef nonnull @.str.27) #11
  br label %.sink.split.i55

93:                                               ; preds = %88
  %94 = getelementptr inbounds i8, ptr %80, i64 120
  %95 = load i16, ptr %94, align 8
  %96 = and i16 %95, 32
  %.not15.i57 = icmp eq i16 %96, 0
  br i1 %.not15.i57, label %100, label %97

97:                                               ; preds = %93
  %98 = load i8, ptr getelementptr inbounds (%struct.BuildTarget, ptr @active_target, i64 0, i32 33), align 2
  %99 = trunc i8 %98 to i1
  br i1 %99, label %100, label %analyse_func_body.exit59

100:                                              ; preds = %97, %93
  %101 = and i16 %95, 16
  %.not16.i58 = icmp eq i16 %101, 0
  br i1 %.not16.i58, label %105, label %102

102:                                              ; preds = %100
  %103 = load i8, ptr getelementptr inbounds (%struct.BuildTarget, ptr @active_target, i64 0, i32 32), align 1
  %104 = trunc i8 %103 to i1
  br i1 %104, label %105, label %analyse_func_body.exit59

105:                                              ; preds = %102, %100
  %106 = call zeroext i1 @sema_analyse_function_body(ptr noundef nonnull %2, ptr noundef nonnull %80) #11
  br i1 %106, label %analyse_func_body.exit59, label %.sink.split.i55

.sink.split.i55:                                  ; preds = %105, %90
  %107 = load i64, ptr %82, align 8
  %108 = and i64 %107, -1024
  %109 = or disjoint i64 %108, 256
  store i64 %109, ptr %82, align 8
  br label %analyse_func_body.exit59

analyse_func_body.exit59:                         ; preds = %.sink.split.i55, %105, %102, %97, %85, %81, %._crit_edge64
  call void @sema_context_destroy(ptr noundef nonnull %2) #11
  %indvars.iv.next79 = add nuw nsw i64 %indvars.iv78, 1
  %exitcond82.not = icmp eq i64 %indvars.iv.next79, %wide.trip.count81
  br i1 %exitcond82.not, label %._crit_edge68, label %.lr.ph67, !llvm.loop !51

._crit_edge68:                                    ; preds = %analyse_func_body.exit59, %1, %5
  ret void
}